Archive member included to satisfy reference by file (symbol)

/build/gcc-arm-none-eabi-7-2018-q2-update/bin/../lib/gcc/arm-none-eabi/7.3.1/../../../../arm-none-eabi/lib/thumb/v6-m/libc.a(lib_a-memcpy-stub.o)
                              aes.o (memcpy)

Discarded input sections

 .text          0x0000000000000000        0x0 vector.o
 .data          0x0000000000000000        0x0 vector.o
 .bss           0x0000000000000000        0x0 vector.o
 .text          0x0000000000000000        0x0 main.o
 .data          0x0000000000000000        0x0 main.o
 .bss           0x0000000000000000        0x0 main.o
 .text          0x0000000000000000        0x0 aes.o
 .data          0x0000000000000000        0x0 aes.o
 .bss           0x0000000000000000        0x0 aes.o
 .text.InvCipher
                0x0000000000000000      0x194 aes.o
 .text.AES_init_ctx_iv
                0x0000000000000000       0x18 aes.o
 .text.AES_ctx_set_iv
                0x0000000000000000        0xc aes.o
 .text.AES_ECB_decrypt
                0x0000000000000000        0xe aes.o
 .text.AES_CBC_encrypt_buffer
                0x0000000000000000       0x40 aes.o
 .text.AES_CBC_decrypt_buffer
                0x0000000000000000       0x46 aes.o
 .text.AES_CTR_xcrypt_buffer
                0x0000000000000000       0x58 aes.o
 .rodata.rsbox  0x0000000000000000      0x100 aes.o
 .data          0x0000000000000000        0x0 elmoasmfunctions.o
 .bss           0x0000000000000000        0x0 elmoasmfunctions.o
 .text          0x0000000000000000        0x0 /build/gcc-arm-none-eabi-7-2018-q2-update/bin/../lib/gcc/arm-none-eabi/7.3.1/../../../../arm-none-eabi/lib/thumb/v6-m/libc.a(lib_a-memcpy-stub.o)
 .data          0x0000000000000000        0x0 /build/gcc-arm-none-eabi-7-2018-q2-update/bin/../lib/gcc/arm-none-eabi/7.3.1/../../../../arm-none-eabi/lib/thumb/v6-m/libc.a(lib_a-memcpy-stub.o)
 .bss           0x0000000000000000        0x0 /build/gcc-arm-none-eabi-7-2018-q2-update/bin/../lib/gcc/arm-none-eabi/7.3.1/../../../../arm-none-eabi/lib/thumb/v6-m/libc.a(lib_a-memcpy-stub.o)
 .text.memcpy   0x0000000000000000       0x88 /build/gcc-arm-none-eabi-7-2018-q2-update/bin/../lib/gcc/arm-none-eabi/7.3.1/../../../../arm-none-eabi/lib/thumb/v6-m/libc.a(lib_a-memcpy-stub.o)
 .debug_frame   0x0000000000000000       0x30 /build/gcc-arm-none-eabi-7-2018-q2-update/bin/../lib/gcc/arm-none-eabi/7.3.1/../../../../arm-none-eabi/lib/thumb/v6-m/libc.a(lib_a-memcpy-stub.o)
 .ARM.attributes
                0x0000000000000000       0x2c /build/gcc-arm-none-eabi-7-2018-q2-update/bin/../lib/gcc/arm-none-eabi/7.3.1/../../../../arm-none-eabi/lib/thumb/v6-m/libc.a(lib_a-memcpy-stub.o)

Memory Configuration

Name             Origin             Length             Attributes
rom              0x0000000008000000 0x0000000000010000 xr
ram              0x0000000020000000 0x0000000000010000 xrw
*default*        0x0000000000000000 0xffffffffffffffff

Linker script and memory map

LOAD vector.o
LOAD main.o
LOAD aes.o
LOAD elmoasmfunctions.o
START GROUP
LOAD /build/gcc-arm-none-eabi-7-2018-q2-update/bin/../lib/gcc/arm-none-eabi/7.3.1/../../../../arm-none-eabi/lib/thumb/v6-m/libc.a
LOAD /build/gcc-arm-none-eabi-7-2018-q2-update/bin/../lib/gcc/arm-none-eabi/7.3.1/thumb/v6-m/libgcc.a
LOAD /build/gcc-arm-none-eabi-7-2018-q2-update/bin/../lib/gcc/arm-none-eabi/7.3.1/../../../../arm-none-eabi/lib/thumb/v6-m/libnosys.a
END GROUP
START GROUP
LOAD /build/gcc-arm-none-eabi-7-2018-q2-update/bin/../lib/gcc/arm-none-eabi/7.3.1/thumb/v6-m/libgcc.a
LOAD /build/gcc-arm-none-eabi-7-2018-q2-update/bin/../lib/gcc/arm-none-eabi/7.3.1/../../../../arm-none-eabi/lib/thumb/v6-m/libc.a
END GROUP

.text           0x0000000008000000      0x554
 *(.vectors)
 .vectors       0x0000000008000000       0xc0 vector.o
                0x0000000008000000                vector_table
 *(.text*)
 .text.blocking_handler
                0x00000000080000c0        0x2 vector.o
                0x00000000080000c0                rtc_isr
                0x00000000080000c0                tim7_isr
                0x00000000080000c0                blocking_handler
                0x00000000080000c0                tsc_isr
                0x00000000080000c0                spi1_isr
                0x00000000080000c0                i2c1_isr
                0x00000000080000c0                tim17_isr
                0x00000000080000c0                i2c2_isr
                0x00000000080000c0                usart1_isr
                0x00000000080000c0                usart3_4_isr
                0x00000000080000c0                tim1_cc_isr
                0x00000000080000c0                exti2_3_isr
                0x00000000080000c0                tim16_isr
                0x00000000080000c0                pvd_isr
                0x00000000080000c0                rcc_isr
                0x00000000080000c0                flash_isr
                0x00000000080000c0                hard_fault_handler
                0x00000000080000c0                tim14_isr
                0x00000000080000c0                spi2_isr
                0x00000000080000c0                usb_isr
                0x00000000080000c0                tim15_isr
                0x00000000080000c0                tim3_isr
                0x00000000080000c0                usart2_isr
                0x00000000080000c0                adc_comp_isr
                0x00000000080000c0                dma1_channel1_isr
                0x00000000080000c0                tim6_dac_isr
                0x00000000080000c0                tim1_brk_up_trg_com_isr
                0x00000000080000c0                dma1_channel2_3_isr
                0x00000000080000c0                exti4_15_isr
                0x00000000080000c0                cec_can_isr
                0x00000000080000c0                wwdg_isr
                0x00000000080000c0                tim2_isr
                0x00000000080000c0                dma1_channel4_5_isr
                0x00000000080000c0                exti0_1_isr
 .text.null_handler
                0x00000000080000c2        0x2 vector.o
                0x00000000080000c2                null_handler
                0x00000000080000c2                sv_call_handler
                0x00000000080000c2                pend_sv_handler
                0x00000000080000c2                sys_tick_handler
                0x00000000080000c2                nmi_handler
 .text.reset_handler
                0x00000000080000c4       0x7c vector.o
                0x00000000080000c4                reset_handler
 .text.startup.main
                0x0000000008000140       0x74 main.o
                0x0000000008000140                main
 .text.KeyExpansion
                0x00000000080001b4       0x74 aes.o
 .text.AddRoundKey
                0x0000000008000228       0x24 aes.o
 .text.xtime    0x000000000800024c        0xe aes.o
 *fill*         0x000000000800025a        0x2 
 .text.Cipher   0x000000000800025c       0xfc aes.o
 .text.AES_init_ctx
                0x0000000008000358        0x8 aes.o
                0x0000000008000358                AES_init_ctx
 .text.AES_ECB_encrypt
                0x0000000008000360        0xe aes.o
                0x0000000008000360                AES_ECB_encrypt
 .text          0x000000000800036e       0xda elmoasmfunctions.o
                0x000000000800036e                starttrigger
                0x0000000008000380                endtrigger
                0x0000000008000392                readbyte
                0x00000000080003a0                LoadN
                0x00000000080003b2                randbyte
                0x00000000080003c4                getstart
                0x00000000080003d6                getruncount
                0x00000000080003e8                printbyte
                0x00000000080003f6                endprogram
                0x0000000008000404                initialisemaskflow
                0x0000000008000414                resetmaskflow
                0x0000000008000426                setmaskflowstart
                0x0000000008000436                resetdatafile
                0x0000000008000448                . = ALIGN (0x4)
 *(.rodata*)
 .rodata.Rcon   0x0000000008000448        0xb aes.o
 .rodata.sbox   0x0000000008000453      0x100 aes.o
                0x0000000008000554                . = ALIGN (0x4)
 *fill*         0x0000000008000553        0x1 

.glue_7         0x0000000008000554        0x0
 .glue_7        0x0000000008000554        0x0 linker stubs

.glue_7t        0x0000000008000554        0x0
 .glue_7t       0x0000000008000554        0x0 linker stubs

.vfp11_veneer   0x0000000008000554        0x0
 .vfp11_veneer  0x0000000008000554        0x0 linker stubs

.v4_bx          0x0000000008000554        0x0
 .v4_bx         0x0000000008000554        0x0 linker stubs

.iplt           0x0000000008000554        0x0
 .iplt          0x0000000008000554        0x0 vector.o

.rel.dyn        0x0000000008000554        0x0
 .rel.iplt      0x0000000008000554        0x0 vector.o

.preinit_array  0x0000000008000554        0x0
                0x0000000008000554                . = ALIGN (0x4)
                0x0000000008000554                __preinit_array_start = .
 *(.preinit_array)
                0x0000000008000554                __preinit_array_end = .

.init_array     0x0000000008000554        0x0
                0x0000000008000554                . = ALIGN (0x4)
                0x0000000008000554                __init_array_start = .
 *(SORT_BY_NAME(.init_array.*))
 *(.init_array)
                0x0000000008000554                __init_array_end = .

.fini_array     0x0000000008000554        0x0
                0x0000000008000554                . = ALIGN (0x4)
                0x0000000008000554                __fini_array_start = .
 *(.fini_array)
 *(SORT_BY_NAME(.fini_array.*))
                0x0000000008000554                __fini_array_end = .

.ARM.extab
 *(.ARM.extab*)

.ARM.exidx      0x0000000008000554        0x0
                0x0000000008000554                __exidx_start = .
 *(.ARM.exidx*)
                0x0000000008000554                __exidx_end = .
                0x0000000008000554                . = ALIGN (0x4)
                0x0000000008000554                _etext = .

.data           0x0000000020000000        0x4 load address 0x0000000008000554
                0x0000000020000000                _data = .
 *(.data*)
 .data.N        0x0000000020000000        0x4 main.o
                0x0000000020000004                . = ALIGN (0x4)
                0x0000000020000004                _edata = .
                0x0000000008000554                _data_loadaddr = LOADADDR (.data)

.igot.plt       0x0000000020000004        0x0 load address 0x0000000008000558
 .igot.plt      0x0000000020000004        0x0 vector.o

.bss            0x0000000020000004       0x20 load address 0x0000000008000558
 *(.bss*)
 .bss.in        0x0000000020000004       0x10 main.o
 .bss.key       0x0000000020000014       0x10 main.o
 *(COMMON)
                0x0000000020000024                . = ALIGN (0x4)
                0x0000000020000024                _ebss = .

/DISCARD/
 *(.eh_frame)
                0x0000000020000024                . = ALIGN (0x4)
                0x0000000020000024                end = .
                0x0000000020010000                PROVIDE (_stack = (ORIGIN (ram) + LENGTH (ram)))
OUTPUT(firmware.elf elf32-littlearm)

.debug_info     0x0000000000000000     0x21da
 .debug_info    0x0000000000000000      0x2d1 vector.o
 .debug_info    0x00000000000002d1      0xad2 main.o
 .debug_info    0x0000000000000da3     0x1411 aes.o
 .debug_info    0x00000000000021b4       0x26 elmoasmfunctions.o

.debug_abbrev   0x0000000000000000      0x6f6
 .debug_abbrev  0x0000000000000000      0x12a vector.o
 .debug_abbrev  0x000000000000012a      0x21b main.o
 .debug_abbrev  0x0000000000000345      0x39d aes.o
 .debug_abbrev  0x00000000000006e2       0x14 elmoasmfunctions.o

.debug_loc      0x0000000000000000      0xd79
 .debug_loc     0x0000000000000000       0xee vector.o
 .debug_loc     0x00000000000000ee       0xb7 main.o
 .debug_loc     0x00000000000001a5      0xbd4 aes.o

.debug_aranges  0x0000000000000000       0xf0
 .debug_aranges
                0x0000000000000000       0x30 vector.o
 .debug_aranges
                0x0000000000000030       0x20 main.o
 .debug_aranges
                0x0000000000000050       0x80 aes.o
 .debug_aranges
                0x00000000000000d0       0x20 elmoasmfunctions.o

.debug_ranges   0x0000000000000000      0x108
 .debug_ranges  0x0000000000000000       0x20 vector.o
 .debug_ranges  0x0000000000000020       0x40 main.o
 .debug_ranges  0x0000000000000060       0xa8 aes.o

.debug_line     0x0000000000000000      0x7c4
 .debug_line    0x0000000000000000       0xf9 vector.o
 .debug_line    0x00000000000000f9      0x227 main.o
 .debug_line    0x0000000000000320      0x3ee aes.o
 .debug_line    0x000000000000070e       0xb6 elmoasmfunctions.o

.debug_str      0x0000000000000000      0x8d2
 .debug_str     0x0000000000000000      0x285 vector.o
                                        0x2be (size before relaxing)
 .debug_str     0x0000000000000285      0x50c main.o
                                        0x5d9 (size before relaxing)
 .debug_str     0x0000000000000791      0x120 aes.o
                                        0x6d0 (size before relaxing)
 .debug_str     0x00000000000008b1       0x21 elmoasmfunctions.o
                                         0x31 (size before relaxing)

.comment        0x0000000000000000       0xef
 .comment       0x0000000000000000       0x70 vector.o
                                         0x71 (size before relaxing)
 .comment       0x0000000000000070       0x7f main.o
                                         0x80 (size before relaxing)
 .comment       0x00000000000000ef       0x80 aes.o

.ARM.attributes
                0x0000000000000000       0x2f
 .ARM.attributes
                0x0000000000000000       0x31 vector.o
 .ARM.attributes
                0x0000000000000031       0x31 main.o
 .ARM.attributes
                0x0000000000000062       0x31 aes.o
 .ARM.attributes
                0x0000000000000093       0x21 elmoasmfunctions.o

.debug_frame    0x0000000000000000      0x1f8
 .debug_frame   0x0000000000000000       0x40 vector.o
 .debug_frame   0x0000000000000040       0x34 main.o
 .debug_frame   0x0000000000000074      0x184 aes.o
